target datalayout = "e-m:e-p270:32:32-p271:32:32-p272:64:64-i64:64-i128:128-f80:128-n8:16:32:64-S128"
target triple = "x86_64-pc-linux-gnu"

; Function Attrs: nounwind uwtable
define hidden i64 @internal_rle_decompress(ptr noundef %0, i64 noundef %1, ptr noundef %2, i64 noundef %3) #0 {
  %5 = alloca i64, align 8
  %6 = alloca ptr, align 8
  %7 = alloca i64, align 8
  %8 = alloca ptr, align 8
  %9 = alloca i64, align 8
  %10 = alloca ptr, align 8
  %11 = alloca ptr, align 8
  %12 = alloca i64, align 8
  %13 = alloca i64, align 8
  %14 = alloca i64, align 8
  %15 = alloca i32, align 4
  %16 = alloca i64, align 8
  store ptr %0, ptr %6, align 8, !tbaa !9
  store i64 %1, ptr %7, align 8, !tbaa !7
  store ptr %2, ptr %8, align 8, !tbaa !9
  store i64 %3, ptr %9, align 8, !tbaa !7
  call void @llvm.lifetime.start.p0(i64 8, ptr %10) #5
  %17 = load ptr, ptr %8, align 8, !tbaa !9
  store ptr %17, ptr %10, align 8, !tbaa !9
  call void @llvm.lifetime.start.p0(i64 8, ptr %11) #5
  %18 = load ptr, ptr %6, align 8, !tbaa !9
  store ptr %18, ptr %11, align 8, !tbaa !9
  call void @llvm.lifetime.start.p0(i64 8, ptr %12) #5
  store i64 0, ptr %12, align 8, !tbaa !7
  call void @llvm.lifetime.start.p0(i64 8, ptr %13) #5
  store i64 0, ptr %13, align 8, !tbaa !7
  br label %19

19:                                               ; preds = %108, %4
  %20 = load i64, ptr %12, align 8, !tbaa !7
  %21 = load i64, ptr %9, align 8, !tbaa !7
  %22 = icmp ult i64 %20, %21
  br i1 %22, label %23, label %109

23:                                               ; preds = %19
  %24 = load ptr, ptr %10, align 8, !tbaa !9
  %25 = load i8, ptr %24, align 1, !tbaa !11
  %26 = sext i8 %25 to i32
  %27 = icmp slt i32 %26, 0
  br i1 %27, label %28, label %69

28:                                               ; preds = %23
  call void @llvm.lifetime.start.p0(i64 8, ptr %14) #5
  %29 = load ptr, ptr %10, align 8, !tbaa !9
  %30 = getelementptr inbounds nuw i8, ptr %29, i32 1
  store ptr %30, ptr %10, align 8, !tbaa !9
  %31 = load i8, ptr %29, align 1, !tbaa !11
  %32 = sext i8 %31 to i32
  %33 = sub nsw i32 0, %32
  %34 = sext i32 %33 to i64
  store i64 %34, ptr %14, align 8, !tbaa !7
  %35 = load i64, ptr %12, align 8, !tbaa !7
  %36 = add i64 %35, 1
  store i64 %36, ptr %12, align 8, !tbaa !7
  %37 = load i64, ptr %12, align 8, !tbaa !7
  %38 = load i64, ptr %14, align 8, !tbaa !7
  %39 = add i64 %37, %38
  %40 = load i64, ptr %9, align 8, !tbaa !7
  %41 = icmp ugt i64 %39, %40
  br i1 %41, label %42, label %43

42:                                               ; preds = %28
  store i64 0, ptr %5, align 8
  store i32 1, ptr %15, align 4
  br label %66

43:                                               ; preds = %28
  %44 = load i64, ptr %13, align 8, !tbaa !7
  %45 = load i64, ptr %14, align 8, !tbaa !7
  %46 = add i64 %44, %45
  %47 = load i64, ptr %7, align 8, !tbaa !7
  %48 = icmp ugt i64 %46, %47
  br i1 %48, label %49, label %50

49:                                               ; preds = %43
  store i64 0, ptr %5, align 8
  store i32 1, ptr %15, align 4
  br label %66

50:                                               ; preds = %43
  %51 = load ptr, ptr %11, align 8, !tbaa !9
  %52 = load ptr, ptr %10, align 8, !tbaa !9
  %53 = load i64, ptr %14, align 8, !tbaa !7
  call void @llvm.memcpy.p0.p0.i64(ptr align 1 %51, ptr align 1 %52, i64 %53, i1 false)
  %54 = load i64, ptr %14, align 8, !tbaa !7
  %55 = load ptr, ptr %10, align 8, !tbaa !9
  %56 = getelementptr inbounds nuw i8, ptr %55, i64 %54
  store ptr %56, ptr %10, align 8, !tbaa !9
  %57 = load i64, ptr %14, align 8, !tbaa !7
  %58 = load ptr, ptr %11, align 8, !tbaa !9
  %59 = getelementptr inbounds nuw i8, ptr %58, i64 %57
  store ptr %59, ptr %11, align 8, !tbaa !9
  %60 = load i64, ptr %14, align 8, !tbaa !7
  %61 = load i64, ptr %12, align 8, !tbaa !7
  %62 = add i64 %61, %60
  store i64 %62, ptr %12, align 8, !tbaa !7
  %63 = load i64, ptr %14, align 8, !tbaa !7
  %64 = load i64, ptr %13, align 8, !tbaa !7
  %65 = add i64 %64, %63
  store i64 %65, ptr %13, align 8, !tbaa !7
  store i32 0, ptr %15, align 4
  br label %66

66:                                               ; preds = %50, %49, %42
  call void @llvm.lifetime.end.p0(i64 8, ptr %14) #5
  %67 = load i32, ptr %15, align 4
  switch i32 %67, label %111 [
    i32 0, label %68
  ]

68:                                               ; preds = %66
  br label %108

69:                                               ; preds = %23
  call void @llvm.lifetime.start.p0(i64 8, ptr %16) #5
  %70 = load ptr, ptr %10, align 8, !tbaa !9
  %71 = getelementptr inbounds nuw i8, ptr %70, i32 1
  store ptr %71, ptr %10, align 8, !tbaa !9
  %72 = load i8, ptr %70, align 1, !tbaa !11
  %73 = sext i8 %72 to i64
  store i64 %73, ptr %16, align 8, !tbaa !7
  %74 = load i64, ptr %12, align 8, !tbaa !7
  %75 = add i64 %74, 2
  %76 = load i64, ptr %9, align 8, !tbaa !7
  %77 = icmp ugt i64 %75, %76
  br i1 %77, label %78, label %79

78:                                               ; preds = %69
  store i64 0, ptr %5, align 8
  store i32 1, ptr %15, align 4
  br label %105

79:                                               ; preds = %69
  %80 = load i64, ptr %12, align 8, !tbaa !7
  %81 = add i64 %80, 2
  store i64 %81, ptr %12, align 8, !tbaa !7
  %82 = load i64, ptr %16, align 8, !tbaa !7
  %83 = add i64 %82, 1
  store i64 %83, ptr %16, align 8, !tbaa !7
  %84 = load i64, ptr %13, align 8, !tbaa !7
  %85 = load i64, ptr %16, align 8, !tbaa !7
  %86 = add i64 %84, %85
  %87 = load i64, ptr %7, align 8, !tbaa !7
  %88 = icmp ugt i64 %86, %87
  br i1 %88, label %89, label %90

89:                                               ; preds = %79
  store i64 0, ptr %5, align 8
  store i32 1, ptr %15, align 4
  br label %105

90:                                               ; preds = %79
  %91 = load ptr, ptr %11, align 8, !tbaa !9
  %92 = load ptr, ptr %10, align 8, !tbaa !9
  %93 = load i8, ptr %92, align 1, !tbaa !11
  %94 = zext i8 %93 to i32
  %95 = trunc i32 %94 to i8
  %96 = load i64, ptr %16, align 8, !tbaa !7
  call void @llvm.memset.p0.i64(ptr align 1 %91, i8 %95, i64 %96, i1 false)
  %97 = load i64, ptr %16, align 8, !tbaa !7
  %98 = load ptr, ptr %11, align 8, !tbaa !9
  %99 = getelementptr inbounds nuw i8, ptr %98, i64 %97
  store ptr %99, ptr %11, align 8, !tbaa !9
  %100 = load i64, ptr %16, align 8, !tbaa !7
  %101 = load i64, ptr %13, align 8, !tbaa !7
  %102 = add i64 %101, %100
  store i64 %102, ptr %13, align 8, !tbaa !7
  %103 = load ptr, ptr %10, align 8, !tbaa !9
  %104 = getelementptr inbounds nuw i8, ptr %103, i32 1
  store ptr %104, ptr %10, align 8, !tbaa !9
  store i32 0, ptr %15, align 4
  br label %105

105:                                              ; preds = %90, %89, %78
  call void @llvm.lifetime.end.p0(i64 8, ptr %16) #5
  %106 = load i32, ptr %15, align 4
  switch i32 %106, label %111 [
    i32 0, label %107
  ]

107:                                              ; preds = %105
  br label %108

108:                                              ; preds = %107, %68
  br label %19, !llvm.loop !34

109:                                              ; preds = %19
  %110 = load i64, ptr %13, align 8, !tbaa !7
  store i64 %110, ptr %5, align 8
  store i32 1, ptr %15, align 4
  br label %111

111:                                              ; preds = %109, %105, %66
  call void @llvm.lifetime.end.p0(i64 8, ptr %13) #5
  call void @llvm.lifetime.end.p0(i64 8, ptr %12) #5
  call void @llvm.lifetime.end.p0(i64 8, ptr %11) #5
  call void @llvm.lifetime.end.p0(i64 8, ptr %10) #5
  %112 = load i64, ptr %5, align 8
  ret i64 %112
}