; Function Attrs: nofree norecurse nosync nounwind memory(argmem: readwrite) uwtable
define hidden i64 @internal_rle_decompress(ptr noundef writeonly captures(none) %0, i64 noundef %1, ptr noundef readonly captures(none) %2, i64 noundef %3) local_unnamed_addr #4 {
  %.not = icmp eq i64 %3, 0
  br i1 %.not, label %.thread, label %.lr.ph

.lr.ph:                                           ; preds = %4, %30
  %.04683 = phi i64 [ %.248, %30 ], [ 0, %4 ]
  %.05082 = phi i64 [ %.252, %30 ], [ 0, %4 ]
  %.05481 = phi ptr [ %.256, %30 ], [ %0, %4 ]
  %.05880 = phi ptr [ %.260, %30 ], [ %2, %4 ]
  %5 = load i8, ptr %.05880, align 1, !tbaa !3
  %6 = icmp slt i8 %5, 0
  br i1 %6, label %7, label %19

7:                                                ; preds = %.lr.ph
  %8 = sext i8 %5 to i64
  %9 = sub nsw i64 0, %8
  %10 = getelementptr inbounds nuw i8, ptr %.05880, i64 1
  %11 = add nuw i64 %.05082, 1
  %12 = sub i64 %11, %8
  %13 = icmp ugt i64 %12, %3
  br i1 %13, label %.thread, label %14

14:                                               ; preds = %7
  %15 = sub i64 %.04683, %8
  %16 = icmp ugt i64 %15, %1
  br i1 %16, label %.thread, label %17

17:                                               ; preds = %14
  tail call void @llvm.memcpy.p0.p0.i64(ptr align 1 %.05481, ptr nonnull align 1 %10, i64 %9, i1 false)
  %18 = getelementptr inbounds nuw i8, ptr %10, i64 %9
  br label %30

19:                                               ; preds = %.lr.ph
  %20 = getelementptr inbounds nuw i8, ptr %.05880, i64 1
  %21 = add i64 %.05082, 2
  %22 = icmp ugt i64 %21, %3
  br i1 %22, label %.thread, label %23

23:                                               ; preds = %19
  %narrow = add nuw i8 %5, 1
  %24 = zext i8 %narrow to i64
  %25 = add i64 %.04683, %24
  %26 = icmp ugt i64 %25, %1
  br i1 %26, label %.thread, label %27

27:                                               ; preds = %23
  %28 = load i8, ptr %20, align 1, !tbaa !3
  tail call void @llvm.memset.p0.i64(ptr noundef nonnull align 1 dereferenceable(1) %.05481, i8 %28, i64 %24, i1 false)
  %29 = getelementptr inbounds nuw i8, ptr %.05880, i64 2
  br label %30

30:                                               ; preds = %27, %17
  %.260 = phi ptr [ %18, %17 ], [ %29, %27 ]
  %.pn = phi i64 [ %9, %17 ], [ %24, %27 ]
  %.252 = phi i64 [ %12, %17 ], [ %21, %27 ]
  %.248 = phi i64 [ %15, %17 ], [ %25, %27 ]
  %.256 = getelementptr inbounds nuw i8, ptr %.05481, i64 %.pn
  %31 = icmp ult i64 %.252, %3
  br i1 %31, label %.lr.ph, label %.thread, !llvm.loop !25

.thread:                                          ; preds = %30, %7, %14, %19, %23, %4
  %.2 = phi i64 [ 0, %4 ], [ 0, %23 ], [ 0, %19 ], [ 0, %14 ], [ 0, %7 ], [ %.248, %30 ]
  ret i64 %.2
}